target datalayout = "e-m:e-p270:32:32-p271:32:32-p272:64:64-i64:64-i128:128-f80:128-n8:16:32:64-S128"
target triple = "x86_64-pc-linux-gnu"

%struct._zend_refcounted_h = type { i32, %union.anon }
%union.anon = type { i32 }
%struct._zval_struct = type { %union._zend_value, %union.anon.3, %union.anon.6 }
%union._zend_value = type { i64 }
%union.anon.3 = type { i32 }
%union.anon.6 = type { i32 }
%struct._zend_string = type { %struct._zend_refcounted_h, i64, i64, [1 x i8] }
%struct._zend_file_handle = type { %union.anon.9, ptr, ptr, i8, i8, i8, ptr, i64 }
%union.anon.9 = type { %struct._zend_stream }
%struct._zend_stream = type { ptr, i32, ptr, ptr, ptr }
%struct._php_stream = type { ptr, ptr, %struct._php_stream_filter_chain, %struct._php_stream_filter_chain, ptr, ptr, %struct._zval_struct, i16, [16 x i8], i32, ptr, ptr, ptr, ptr, i64, ptr, i64, i64, i64, i64, ptr }
%struct._php_stream_filter_chain = type { ptr, ptr, ptr }

@.str.33 = private unnamed_addr constant [3 x i8] c"rb\00", align 1

; Function Attrs: nounwind uwtable
define dso_local i32 @php_stream_open_for_zend_ex(ptr noundef %0, i32 noundef %1) #1 {
  %3 = alloca i32, align 4
  %4 = alloca ptr, align 8
  %5 = alloca i32, align 4
  %6 = alloca ptr, align 8
  %7 = alloca ptr, align 8
  %8 = alloca ptr, align 8
  %9 = alloca i32, align 4
  store ptr %0, ptr %4, align 8, !tbaa !107
  store i32 %1, ptr %5, align 4, !tbaa !50
  call void @llvm.lifetime.start.p0(i64 8, ptr %6) #18
  call void @llvm.lifetime.start.p0(i64 8, ptr %7) #18
  call void @llvm.lifetime.start.p0(i64 8, ptr %8) #18
  %10 = load ptr, ptr %4, align 8, !tbaa !107
  %11 = getelementptr inbounds nuw %struct._zend_file_handle, ptr %10, i32 0, i32 3
  %12 = load i8, ptr %11, align 8, !tbaa !109
  %13 = zext i8 %12 to i32
  %14 = icmp eq i32 %13, 0
  call void @llvm.assume(i1 %14)
  %15 = load ptr, ptr %4, align 8, !tbaa !107
  %16 = getelementptr inbounds nuw %struct._zend_file_handle, ptr %15, i32 0, i32 1
  %17 = load ptr, ptr %16, align 8, !tbaa !111
  store ptr %17, ptr %7, align 8, !tbaa !54
  store ptr %17, ptr %6, align 8, !tbaa !54
  %18 = load ptr, ptr %7, align 8, !tbaa !54
  %19 = getelementptr inbounds nuw %struct._zend_string, ptr %18, i32 0, i32 3
  %20 = getelementptr inbounds [1 x i8], ptr %19, i64 0, i64 0
  %21 = load i32, ptr %5, align 4, !tbaa !50
  %22 = or i32 %21, 65536
  %23 = call ptr @_php_stream_open_wrapper_ex(ptr noundef %20, ptr noundef @.str.33, i32 noundef %22, ptr noundef %6, ptr noundef null)
  store ptr %23, ptr %8, align 8, !tbaa !112
  %24 = load ptr, ptr %8, align 8, !tbaa !112
  %25 = icmp ne ptr %24, null
  br i1 %25, label %26, label %59

26:                                               ; preds = %2
  %27 = load ptr, ptr %4, align 8, !tbaa !107
  call void @llvm.memset.p0.i64(ptr align 8 %27, i8 0, i64 80, i1 false)
  %28 = load ptr, ptr %4, align 8, !tbaa !107
  %29 = getelementptr inbounds nuw %struct._zend_file_handle, ptr %28, i32 0, i32 3
  store i8 2, ptr %29, align 8, !tbaa !109
  %30 = load ptr, ptr %7, align 8, !tbaa !54
  %31 = load ptr, ptr %4, align 8, !tbaa !107
  %32 = getelementptr inbounds nuw %struct._zend_file_handle, ptr %31, i32 0, i32 1
  store ptr %30, ptr %32, align 8, !tbaa !111
  %33 = load ptr, ptr %6, align 8, !tbaa !54
  %34 = load ptr, ptr %4, align 8, !tbaa !107
  %35 = getelementptr inbounds nuw %struct._zend_file_handle, ptr %34, i32 0, i32 2
  store ptr %33, ptr %35, align 8, !tbaa !113
  %36 = load ptr, ptr %8, align 8, !tbaa !112
  %37 = load ptr, ptr %4, align 8, !tbaa !107
  %38 = getelementptr inbounds nuw %struct._zend_file_handle, ptr %37, i32 0, i32 0
  %39 = getelementptr inbounds nuw %struct._zend_stream, ptr %38, i32 0, i32 0
  store ptr %36, ptr %39, align 8, !tbaa !27
  %40 = load ptr, ptr %4, align 8, !tbaa !107
  %41 = getelementptr inbounds nuw %struct._zend_file_handle, ptr %40, i32 0, i32 0
  %42 = getelementptr inbounds nuw %struct._zend_stream, ptr %41, i32 0, i32 2
  store ptr @_php_stream_read, ptr %42, align 8, !tbaa !27
  %43 = load ptr, ptr %4, align 8, !tbaa !107
  %44 = getelementptr inbounds nuw %struct._zend_file_handle, ptr %43, i32 0, i32 0
  %45 = getelementptr inbounds nuw %struct._zend_stream, ptr %44, i32 0, i32 3
  store ptr @php_zend_stream_fsizer, ptr %45, align 8, !tbaa !27
  %46 = load ptr, ptr %4, align 8, !tbaa !107
  %47 = getelementptr inbounds nuw %struct._zend_file_handle, ptr %46, i32 0, i32 0
  %48 = getelementptr inbounds nuw %struct._zend_stream, ptr %47, i32 0, i32 1
  store i32 0, ptr %48, align 8, !tbaa !27
  %49 = load ptr, ptr %4, align 8, !tbaa !107
  %50 = getelementptr inbounds nuw %struct._zend_file_handle, ptr %49, i32 0, i32 0
  %51 = getelementptr inbounds nuw %struct._zend_stream, ptr %50, i32 0, i32 4
  store ptr @php_zend_stream_closer, ptr %51, align 8, !tbaa !27
  %52 = load ptr, ptr %8, align 8, !tbaa !112
  %53 = getelementptr inbounds nuw %struct._php_stream, ptr %52, i32 0, i32 7
  %54 = load i16, ptr %53, align 8
  %55 = and i16 %54, -17
  %56 = or i16 %55, 16
  store i16 %56, ptr %53, align 8
  %57 = load ptr, ptr %8, align 8, !tbaa !112
  %58 = call i32 @_php_stream_set_option(ptr noundef %57, i32 noundef 2, i32 noundef 0, ptr noundef null)
  store i32 0, ptr %3, align 4
  store i32 1, ptr %9, align 4
  br label %60

59:                                               ; preds = %2
  store i32 -1, ptr %3, align 4
  store i32 1, ptr %9, align 4
  br label %60

60:                                               ; preds = %59, %26
  call void @llvm.lifetime.end.p0(i64 8, ptr %8) #18
  call void @llvm.lifetime.end.p0(i64 8, ptr %7) #18
  call void @llvm.lifetime.end.p0(i64 8, ptr %6) #18
  %61 = load i32, ptr %3, align 4
  ret i32 %61
}