; Function Attrs: nounwind uwtable
define dso_local range(i32 -1, 1) i32 @php_stream_open_for_zend_ex(ptr noundef captures(none) %0, i32 noundef %1) local_unnamed_addr #2 {
  %3 = alloca ptr, align 8
  call void @llvm.lifetime.start.p0(i64 8, ptr nonnull %3) #28
  %4 = getelementptr inbounds nuw i8, ptr %0, i64 56
  %5 = load i8, ptr %4, align 8, !tbaa !95
  %6 = icmp eq i8 %5, 0
  tail call void @llvm.assume(i1 %6)
  %7 = getelementptr inbounds nuw i8, ptr %0, i64 40
  %8 = load ptr, ptr %7, align 8, !tbaa !97
  store ptr %8, ptr %3, align 8, !tbaa !98
  %9 = getelementptr inbounds nuw i8, ptr %8, i64 24
  %10 = or i32 %1, 65536
  %11 = call ptr @_php_stream_open_wrapper_ex(ptr noundef nonnull %9, ptr noundef nonnull @.str.33, i32 noundef %10, ptr noundef nonnull %3, ptr noundef null) #28
  %.not = icmp eq ptr %11, null
  br i1 %.not, label %23, label %12

12:                                               ; preds = %2
  %13 = getelementptr inbounds nuw i8, ptr %0, i64 8
  call void @llvm.memset.p0.i64(ptr noundef nonnull align 8 dereferenceable(80) %13, i8 0, i64 72, i1 false)
  store i8 2, ptr %4, align 8, !tbaa !95
  store ptr %8, ptr %7, align 8, !tbaa !97
  %14 = load ptr, ptr %3, align 8, !tbaa !98
  %15 = getelementptr inbounds nuw i8, ptr %0, i64 48
  store ptr %14, ptr %15, align 8, !tbaa !99
  store ptr %11, ptr %0, align 8, !tbaa !24
  %16 = getelementptr inbounds nuw i8, ptr %0, i64 16
  store ptr @_php_stream_read, ptr %16, align 8, !tbaa !24
  %17 = getelementptr inbounds nuw i8, ptr %0, i64 24
  store ptr @php_zend_stream_fsizer, ptr %17, align 8, !tbaa !24
  %18 = getelementptr inbounds nuw i8, ptr %0, i64 32
  store ptr @php_zend_stream_closer, ptr %18, align 8, !tbaa !24
  %19 = getelementptr inbounds nuw i8, ptr %11, i64 96
  %20 = load i16, ptr %19, align 8
  %21 = or i16 %20, 16
  store i16 %21, ptr %19, align 8
  %22 = call i32 @_php_stream_set_option(ptr noundef nonnull %11, i32 noundef 2, i32 noundef 0, ptr noundef null) #28
  br label %23

23:                                               ; preds = %2, %12
  %.0 = phi i32 [ 0, %12 ], [ -1, %2 ]
  call void @llvm.lifetime.end.p0(i64 8, ptr nonnull %3) #28
  ret i32 %.0
}